; Function Attrs: nounwind sspstrong uwtable
define internal range(i64 1, 0) i64 @rb_f_fork(i64 %0) #1 {
  %2 = alloca i32, align 4
  %3 = tail call i32 @rb_call_proc__fork()
  %4 = icmp eq i32 %3, 0
  br i1 %4, label %5, label %10

5:                                                ; preds = %1
  %6 = tail call i32 @rb_block_given_p() #27
  %.not = icmp eq i32 %6, 0
  br i1 %.not, label %14, label %7

7:                                                ; preds = %5
  call void @llvm.lifetime.start.p0(i64 4, ptr nonnull %2) #27
  %8 = call i64 @rb_protect(ptr noundef nonnull @rb_yield, i64 noundef 36, ptr noundef nonnull %2) #27
  %9 = load i32, ptr %2, align 4, !tbaa !60
  call void @ruby_stop(i32 noundef %9) #29
  unreachable

10:                                               ; preds = %1
  %11 = sext i32 %3 to i64
  %12 = shl nsw i64 %11, 1
  %13 = or disjoint i64 %12, 1
  br label %14

14:                                               ; preds = %5, %10
  %.0 = phi i64 [ %13, %10 ], [ 4, %5 ]
  ret i64 %.0
}